target datalayout = "e-m:e-p270:32:32-p271:32:32-p272:64:64-i64:64-i128:128-f80:128-n8:16:32:64-S128"
target triple = "x86_64-pc-linux-gnu"

%struct._object = type { %union.anon, ptr }
%union.anon = type { i64 }
%struct.anon = type { i32, i32 }
%struct.ProfilerObject = type { %struct._object, ptr, ptr, ptr, i32, ptr, double, i32, ptr }
%struct.anon.0 = type { i32, ptr }
%struct._ProfilerContext = type { i64, i64, ptr, ptr }

@PyExc_MemoryError = external global ptr, align 8
@.str.16 = private unnamed_addr constant [37 x i8] c"memory was exhausted while profiling\00", align 1
@_Py_NoneStruct = external global %struct._object, align 8
@.str.21 = private unnamed_addr constant [4 x i8] c"sys\00", align 1
@.str.22 = private unnamed_addr constant [11 x i8] c"monitoring\00", align 1
@.str.27 = private unnamed_addr constant [18 x i8] c"register_callback\00", align 1
@.str.28 = private unnamed_addr constant [4 x i8] c"iiO\00", align 1
@.str.29 = private unnamed_addr constant [11 x i8] c"set_events\00", align 1
@.str.30 = private unnamed_addr constant [3 x i8] c"ii\00", align 1
@PyExc_RuntimeError = external global ptr, align 8
@.str.32 = private unnamed_addr constant [42 x i8] c"cannot disable profiler in external timer\00", align 1
@.str.33 = private unnamed_addr constant [13 x i8] c"free_tool_id\00", align 1
@.str.34 = private unnamed_addr constant [2 x i8] c"i\00", align 1

; Function Attrs: alwaysinline nounwind uwtable
define internal i32 @_Py_IsImmortal(ptr noundef %0) #2 {
  %2 = alloca ptr, align 8
  store ptr %0, ptr %2, align 8, !tbaa !3
  %3 = load ptr, ptr %2, align 8, !tbaa !3
  %4 = getelementptr inbounds nuw %struct._object, ptr %3, i32 0, i32 0
  %5 = getelementptr inbounds nuw %struct.anon, ptr %4, i32 0, i32 0
  %6 = load i32, ptr %5, align 8, !tbaa !21
  %7 = icmp slt i32 %6, 0
  %8 = zext i1 %7 to i32
  ret i32 %8
}

; Function Attrs: nounwind uwtable
define internal i32 @pending_exception(ptr noundef %0) #0 {
  %2 = alloca i32, align 4
  %3 = alloca ptr, align 8
  store ptr %0, ptr %3, align 8, !tbaa !24
  %4 = load ptr, ptr %3, align 8, !tbaa !24
  %5 = getelementptr inbounds nuw %struct.ProfilerObject, ptr %4, i32 0, i32 4
  %6 = load i32, ptr %5, align 8, !tbaa !31
  %7 = and i32 %6, 256
  %8 = icmp ne i32 %7, 0
  br i1 %8, label %9, label %15

9:                                                ; preds = %1
  %10 = load ptr, ptr %3, align 8, !tbaa !24
  %11 = getelementptr inbounds nuw %struct.ProfilerObject, ptr %10, i32 0, i32 4
  %12 = load i32, ptr %11, align 8, !tbaa !31
  %13 = sub i32 %12, 256
  store i32 %13, ptr %11, align 8, !tbaa !31
  %14 = load ptr, ptr @PyExc_MemoryError, align 8, !tbaa !3
  call void @PyErr_SetString(ptr noundef %14, ptr noundef @.str.16)
  store i32 -1, ptr %2, align 4
  br label %16

15:                                               ; preds = %1
  store i32 0, ptr %2, align 4
  br label %16

16:                                               ; preds = %15, %9
  %17 = load i32, ptr %2, align 4
  ret i32 %17
}

; Function Attrs: nounwind uwtable
define internal void @flush_unmatched(ptr noundef %0) #0 {
  %2 = alloca ptr, align 8
  %3 = alloca ptr, align 8
  %4 = alloca ptr, align 8
  store ptr %0, ptr %2, align 8, !tbaa !24
  br label %5

5:                                                ; preds = %34, %1
  %6 = load ptr, ptr %2, align 8, !tbaa !24
  %7 = getelementptr inbounds nuw %struct.ProfilerObject, ptr %6, i32 0, i32 2
  %8 = load ptr, ptr %7, align 8, !tbaa !92
  %9 = icmp ne ptr %8, null
  br i1 %9, label %10, label %35

10:                                               ; preds = %5
  call void @llvm.lifetime.start.p0(i64 8, ptr %3) #6
  %11 = load ptr, ptr %2, align 8, !tbaa !24
  %12 = getelementptr inbounds nuw %struct.ProfilerObject, ptr %11, i32 0, i32 2
  %13 = load ptr, ptr %12, align 8, !tbaa !92
  store ptr %13, ptr %3, align 8, !tbaa !93
  call void @llvm.lifetime.start.p0(i64 8, ptr %4) #6
  %14 = load ptr, ptr %3, align 8, !tbaa !93
  %15 = getelementptr inbounds nuw %struct._ProfilerContext, ptr %14, i32 0, i32 3
  %16 = load ptr, ptr %15, align 8, !tbaa !94
  store ptr %16, ptr %4, align 8, !tbaa !66
  %17 = load ptr, ptr %4, align 8, !tbaa !66
  %18 = icmp ne ptr %17, null
  br i1 %18, label %19, label %23

19:                                               ; preds = %10
  %20 = load ptr, ptr %2, align 8, !tbaa !24
  %21 = load ptr, ptr %3, align 8, !tbaa !93
  %22 = load ptr, ptr %4, align 8, !tbaa !66
  call void @Stop(ptr noundef %20, ptr noundef %21, ptr noundef %22)
  br label %29

23:                                               ; preds = %10
  %24 = load ptr, ptr %3, align 8, !tbaa !93
  %25 = getelementptr inbounds nuw %struct._ProfilerContext, ptr %24, i32 0, i32 2
  %26 = load ptr, ptr %25, align 8, !tbaa !96
  %27 = load ptr, ptr %2, align 8, !tbaa !24
  %28 = getelementptr inbounds nuw %struct.ProfilerObject, ptr %27, i32 0, i32 2
  store ptr %26, ptr %28, align 8, !tbaa !92
  br label %29

29:                                               ; preds = %23, %19
  %30 = load ptr, ptr %3, align 8, !tbaa !93
  %31 = icmp ne ptr %30, null
  br i1 %31, label %32, label %34

32:                                               ; preds = %29
  %33 = load ptr, ptr %3, align 8, !tbaa !93
  call void @PyMem_Free(ptr noundef %33)
  br label %34

34:                                               ; preds = %32, %29
  call void @llvm.lifetime.end.p0(i64 8, ptr %4) #6
  call void @llvm.lifetime.end.p0(i64 8, ptr %3) #6
  br label %5, !llvm.loop !97

35:                                               ; preds = %5
  ret void
}

; Function Attrs: alwaysinline nounwind uwtable
define internal void @Py_DECREF(ptr noundef %0) #2 {
  %2 = alloca ptr, align 8
  store ptr %0, ptr %2, align 8, !tbaa !3
  %3 = load ptr, ptr %2, align 8, !tbaa !3
  %4 = call i32 @_Py_IsImmortal(ptr noundef %3)
  %5 = icmp ne i32 %4, 0
  br i1 %5, label %6, label %7

6:                                                ; preds = %1
  br label %16

7:                                                ; preds = %1
  %8 = load ptr, ptr %2, align 8, !tbaa !3
  %9 = getelementptr inbounds nuw %struct._object, ptr %8, i32 0, i32 0
  %10 = getelementptr inbounds nuw %struct.anon, ptr %9, i32 0, i32 0
  %11 = load i32, ptr %10, align 8, !tbaa !21
  %12 = add i32 %11, -1
  store i32 %12, ptr %10, align 8, !tbaa !21
  %13 = icmp eq i32 %12, 0
  br i1 %13, label %14, label %16

14:                                               ; preds = %7
  %15 = load ptr, ptr %2, align 8, !tbaa !3
  call void @_Py_Dealloc(ptr noundef %15)
  br label %16

16:                                               ; preds = %6, %14, %7
  ret void
}

; Function Attrs: nounwind uwtable
define internal ptr @_lsprof_Profiler_disable_impl(ptr noundef %0) #0 {
  %2 = alloca ptr, align 8
  %3 = alloca ptr, align 8
  %4 = alloca ptr, align 8
  %5 = alloca ptr, align 8
  %6 = alloca i32, align 4
  %7 = alloca i32, align 4
  store ptr %0, ptr %3, align 8, !tbaa !24
  %8 = load ptr, ptr %3, align 8, !tbaa !24
  %9 = getelementptr inbounds nuw %struct.ProfilerObject, ptr %8, i32 0, i32 4
  %10 = load i32, ptr %9, align 8, !tbaa !31
  %11 = and i32 %10, 8
  %12 = icmp ne i32 %11, 0
  br i1 %12, label %13, label %15

13:                                               ; preds = %1
  %14 = load ptr, ptr @PyExc_RuntimeError, align 8, !tbaa !3
  call void @PyErr_SetString(ptr noundef %14, ptr noundef @.str.32)
  store ptr null, ptr %2, align 8
  br label %96

15:                                               ; preds = %1
  %16 = load ptr, ptr %3, align 8, !tbaa !24
  %17 = getelementptr inbounds nuw %struct.ProfilerObject, ptr %16, i32 0, i32 4
  %18 = load i32, ptr %17, align 8, !tbaa !31
  %19 = and i32 %18, 1
  %20 = icmp ne i32 %19, 0
  br i1 %20, label %21, label %90

21:                                               ; preds = %15
  call void @llvm.lifetime.start.p0(i64 8, ptr %4) #6
  store ptr null, ptr %4, align 8, !tbaa !3
  call void @llvm.lifetime.start.p0(i64 8, ptr %5) #6
  %22 = call ptr @PyImport_ImportModuleAttrString(ptr noundef @.str.21, ptr noundef @.str.22)
  store ptr %22, ptr %5, align 8, !tbaa !3
  %23 = load ptr, ptr %5, align 8, !tbaa !3
  %24 = icmp ne ptr %23, null
  br i1 %24, label %26, label %25

25:                                               ; preds = %21
  store ptr null, ptr %2, align 8
  store i32 1, ptr %6, align 4
  br label %87

26:                                               ; preds = %21
  call void @llvm.lifetime.start.p0(i64 4, ptr %7) #6
  store i32 0, ptr %7, align 4, !tbaa !22
  br label %27

27:                                               ; preds = %53, %26
  %28 = load i32, ptr %7, align 4, !tbaa !22
  %29 = sext i32 %28 to i64
  %30 = getelementptr [10 x %struct.anon.0], ptr @callback_table, i64 0, i64 %29
  %31 = getelementptr inbounds nuw %struct.anon.0, ptr %30, i32 0, i32 1
  %32 = load ptr, ptr %31, align 8, !tbaa !86
  %33 = icmp ne ptr %32, null
  br i1 %33, label %35, label %34

34:                                               ; preds = %27
  store i32 2, ptr %6, align 4
  br label %56

35:                                               ; preds = %27
  %36 = load ptr, ptr %5, align 8, !tbaa !3
  %37 = load ptr, ptr %3, align 8, !tbaa !24
  %38 = getelementptr inbounds nuw %struct.ProfilerObject, ptr %37, i32 0, i32 7
  %39 = load i32, ptr %38, align 8, !tbaa !85
  %40 = load i32, ptr %7, align 4, !tbaa !22
  %41 = sext i32 %40 to i64
  %42 = getelementptr [10 x %struct.anon.0], ptr @callback_table, i64 0, i64 %41
  %43 = getelementptr inbounds nuw %struct.anon.0, ptr %42, i32 0, i32 0
  %44 = load i32, ptr %43, align 16, !tbaa !88
  %45 = shl i32 1, %44
  %46 = call ptr (ptr, ptr, ptr, ...) @PyObject_CallMethod(ptr noundef %36, ptr noundef @.str.27, ptr noundef @.str.28, i32 noundef %39, i32 noundef %45, ptr noundef @_Py_NoneStruct)
  store ptr %46, ptr %4, align 8, !tbaa !3
  %47 = load ptr, ptr %4, align 8, !tbaa !3
  %48 = icmp ne ptr %47, null
  br i1 %48, label %51, label %49

49:                                               ; preds = %35
  %50 = load ptr, ptr %5, align 8, !tbaa !3
  call void @Py_DECREF(ptr noundef %50)
  store ptr null, ptr %2, align 8
  store i32 1, ptr %6, align 4
  br label %56

51:                                               ; preds = %35
  %52 = load ptr, ptr %4, align 8, !tbaa !3
  call void @Py_DECREF(ptr noundef %52)
  br label %53

53:                                               ; preds = %51
  %54 = load i32, ptr %7, align 4, !tbaa !22
  %55 = add i32 %54, 1
  store i32 %55, ptr %7, align 4, !tbaa !22
  br label %27, !llvm.loop !91

56:                                               ; preds = %49, %34
  call void @llvm.lifetime.end.p0(i64 4, ptr %7) #6
  %57 = load i32, ptr %6, align 4
  switch i32 %57, label %87 [
    i32 2, label %58
  ]

58:                                               ; preds = %56
  %59 = load ptr, ptr %5, align 8, !tbaa !3
  %60 = load ptr, ptr %3, align 8, !tbaa !24
  %61 = getelementptr inbounds nuw %struct.ProfilerObject, ptr %60, i32 0, i32 7
  %62 = load i32, ptr %61, align 8, !tbaa !85
  %63 = call ptr (ptr, ptr, ptr, ...) @PyObject_CallMethod(ptr noundef %59, ptr noundef @.str.29, ptr noundef @.str.30, i32 noundef %62, i32 noundef 0)
  store ptr %63, ptr %4, align 8, !tbaa !3
  %64 = load ptr, ptr %4, align 8, !tbaa !3
  %65 = icmp ne ptr %64, null
  br i1 %65, label %68, label %66

66:                                               ; preds = %58
  %67 = load ptr, ptr %5, align 8, !tbaa !3
  call void @Py_DECREF(ptr noundef %67)
  store ptr null, ptr %2, align 8
  store i32 1, ptr %6, align 4
  br label %87

68:                                               ; preds = %58
  %69 = load ptr, ptr %4, align 8, !tbaa !3
  call void @Py_DECREF(ptr noundef %69)
  %70 = load ptr, ptr %5, align 8, !tbaa !3
  %71 = load ptr, ptr %3, align 8, !tbaa !24
  %72 = getelementptr inbounds nuw %struct.ProfilerObject, ptr %71, i32 0, i32 7
  %73 = load i32, ptr %72, align 8, !tbaa !85
  %74 = call ptr (ptr, ptr, ptr, ...) @PyObject_CallMethod(ptr noundef %70, ptr noundef @.str.33, ptr noundef @.str.34, i32 noundef %73)
  store ptr %74, ptr %4, align 8, !tbaa !3
  %75 = load ptr, ptr %4, align 8, !tbaa !3
  %76 = icmp ne ptr %75, null
  br i1 %76, label %79, label %77

77:                                               ; preds = %68
  %78 = load ptr, ptr %5, align 8, !tbaa !3
  call void @Py_DECREF(ptr noundef %78)
  store ptr null, ptr %2, align 8
  store i32 1, ptr %6, align 4
  br label %87

79:                                               ; preds = %68
  %80 = load ptr, ptr %4, align 8, !tbaa !3
  call void @Py_DECREF(ptr noundef %80)
  %81 = load ptr, ptr %5, align 8, !tbaa !3
  call void @Py_DECREF(ptr noundef %81)
  %82 = load ptr, ptr %3, align 8, !tbaa !24
  %83 = getelementptr inbounds nuw %struct.ProfilerObject, ptr %82, i32 0, i32 4
  %84 = load i32, ptr %83, align 8, !tbaa !31
  %85 = and i32 %84, -2
  store i32 %85, ptr %83, align 8, !tbaa !31
  %86 = load ptr, ptr %3, align 8, !tbaa !24
  call void @flush_unmatched(ptr noundef %86)
  store i32 0, ptr %6, align 4
  br label %87

87:                                               ; preds = %79, %77, %66, %56, %25
  call void @llvm.lifetime.end.p0(i64 8, ptr %5) #6
  call void @llvm.lifetime.end.p0(i64 8, ptr %4) #6
  %88 = load i32, ptr %6, align 4
  switch i32 %88, label %98 [
    i32 0, label %89
    i32 1, label %96
  ]

89:                                               ; preds = %87
  br label %90

90:                                               ; preds = %89, %15
  %91 = load ptr, ptr %3, align 8, !tbaa !24
  %92 = call i32 @pending_exception(ptr noundef %91)
  %93 = icmp ne i32 %92, 0
  br i1 %93, label %94, label %95

94:                                               ; preds = %90
  store ptr null, ptr %2, align 8
  br label %96

95:                                               ; preds = %90
  store ptr @_Py_NoneStruct, ptr %2, align 8
  br label %96

96:                                               ; preds = %95, %94, %87, %13
  %97 = load ptr, ptr %2, align 8
  ret ptr %97

98:                                               ; preds = %87
  unreachable
}

; Function Attrs: nounwind uwtable
define internal ptr @_lsprof_Profiler_disable(ptr noundef %0, ptr noundef %1) #0 {
  %3 = alloca ptr, align 8
  %4 = alloca ptr, align 8
  store ptr %0, ptr %3, align 8, !tbaa !3
  store ptr %1, ptr %4, align 8, !tbaa !3
  %5 = load ptr, ptr %3, align 8, !tbaa !3
  %6 = call ptr @_lsprof_Profiler_disable_impl(ptr noundef %5)
  ret ptr %6
}