; Function Attrs: nounwind uwtable
define internal noundef ptr @_lsprof_Profiler_disable(ptr noundef captures(none) %0, ptr readnone captures(none) %1) #0 {
  %3 = getelementptr inbounds nuw i8, ptr %0, i64 40
  %4 = load i32, ptr %3, align 8, !tbaa !26
  %5 = and i32 %4, 8
  %.not.i = icmp eq i32 %5, 0
  br i1 %.not.i, label %8, label %6

6:                                                ; preds = %2
  %7 = load ptr, ptr @PyExc_RuntimeError, align 8, !tbaa !48
  tail call void @PyErr_SetString(ptr noundef %7, ptr noundef nonnull @.str.32) #5
  br label %_lsprof_Profiler_disable_impl.exit

8:                                                ; preds = %2
  %9 = and i32 %4, 1
  %.not34.i = icmp eq i32 %9, 0
  br i1 %.not34.i, label %Py_DECREF.exit52.i, label %10

10:                                               ; preds = %8
  %11 = tail call ptr @PyImport_ImportModuleAttrString(ptr noundef nonnull @.str.21, ptr noundef nonnull @.str.22) #5
  %.not35.i = icmp eq ptr %11, null
  br i1 %.not35.i, label %_lsprof_Profiler_disable_impl.exit, label %.preheader.i

.preheader.i:                                     ; preds = %10
  %12 = getelementptr inbounds nuw i8, ptr %0, i64 64
  br label %13

13:                                               ; preds = %Py_DECREF.exit50.i, %.preheader.i
  %indvars.iv.i = phi i64 [ 0, %.preheader.i ], [ %indvars.iv.next.i, %Py_DECREF.exit50.i ]
  %14 = phi ptr [ @callback_table, %.preheader.i ], [ %31, %Py_DECREF.exit50.i ]
  %15 = load i32, ptr %12, align 8, !tbaa !52
  %16 = load i32, ptr %14, align 16, !tbaa !69
  %17 = shl nuw i32 1, %16
  %18 = tail call ptr (ptr, ptr, ptr, ...) @PyObject_CallMethod(ptr noundef nonnull %11, ptr noundef nonnull @.str.27, ptr noundef nonnull @.str.28, i32 noundef %15, i32 noundef %17, ptr noundef nonnull @_Py_NoneStruct) #5
  %.not37.i = icmp eq ptr %18, null
  br i1 %.not37.i, label %19, label %25

19:                                               ; preds = %13
  %20 = load i32, ptr %11, align 8, !tbaa !9
  %.not.i51.i = icmp sgt i32 %20, -1
  br i1 %.not.i51.i, label %21, label %_lsprof_Profiler_disable_impl.exit

21:                                               ; preds = %19
  %22 = add nsw i32 %20, -1
  store i32 %22, ptr %11, align 8, !tbaa !9
  %23 = icmp eq i32 %22, 0
  br i1 %23, label %24, label %_lsprof_Profiler_disable_impl.exit

24:                                               ; preds = %21
  tail call void @_Py_Dealloc(ptr noundef nonnull %11) #5
  br label %_lsprof_Profiler_disable_impl.exit

25:                                               ; preds = %13
  %26 = load i32, ptr %18, align 8, !tbaa !9
  %.not.i49.i = icmp sgt i32 %26, -1
  br i1 %.not.i49.i, label %27, label %Py_DECREF.exit50.i

27:                                               ; preds = %25
  %28 = add nsw i32 %26, -1
  store i32 %28, ptr %18, align 8, !tbaa !9
  %29 = icmp eq i32 %28, 0
  br i1 %29, label %30, label %Py_DECREF.exit50.i

30:                                               ; preds = %27
  tail call void @_Py_Dealloc(ptr noundef nonnull %18) #5
  br label %Py_DECREF.exit50.i

Py_DECREF.exit50.i:                               ; preds = %30, %27, %25
  %indvars.iv.next.i = add nuw nsw i64 %indvars.iv.i, 1
  %31 = getelementptr [10 x %struct.anon.0], ptr @callback_table, i64 0, i64 %indvars.iv.next.i
  %exitcond.i = icmp eq i64 %indvars.iv.next.i, 9
  br i1 %exitcond.i, label %.critedge.i, label %13, !llvm.loop !73

.critedge.i:                                      ; preds = %Py_DECREF.exit50.i
  %32 = load i32, ptr %12, align 8, !tbaa !52
  %33 = tail call ptr (ptr, ptr, ptr, ...) @PyObject_CallMethod(ptr noundef nonnull %11, ptr noundef nonnull @.str.29, ptr noundef nonnull @.str.30, i32 noundef %32, i32 noundef 0) #5
  %.not38.i = icmp eq ptr %33, null
  br i1 %.not38.i, label %34, label %40

34:                                               ; preds = %.critedge.i
  %35 = load i32, ptr %11, align 8, !tbaa !9
  %.not.i47.i = icmp sgt i32 %35, -1
  br i1 %.not.i47.i, label %36, label %_lsprof_Profiler_disable_impl.exit

36:                                               ; preds = %34
  %37 = add nsw i32 %35, -1
  store i32 %37, ptr %11, align 8, !tbaa !9
  %38 = icmp eq i32 %37, 0
  br i1 %38, label %39, label %_lsprof_Profiler_disable_impl.exit

39:                                               ; preds = %36
  tail call void @_Py_Dealloc(ptr noundef nonnull %11) #5
  br label %_lsprof_Profiler_disable_impl.exit

40:                                               ; preds = %.critedge.i
  %41 = load i32, ptr %33, align 8, !tbaa !9
  %.not.i45.i = icmp sgt i32 %41, -1
  br i1 %.not.i45.i, label %42, label %Py_DECREF.exit46.i

42:                                               ; preds = %40
  %43 = add nsw i32 %41, -1
  store i32 %43, ptr %33, align 8, !tbaa !9
  %44 = icmp eq i32 %43, 0
  br i1 %44, label %45, label %Py_DECREF.exit46.i

45:                                               ; preds = %42
  tail call void @_Py_Dealloc(ptr noundef nonnull %33) #5
  br label %Py_DECREF.exit46.i

Py_DECREF.exit46.i:                               ; preds = %45, %42, %40
  %46 = load i32, ptr %12, align 8, !tbaa !52
  %47 = tail call ptr (ptr, ptr, ptr, ...) @PyObject_CallMethod(ptr noundef nonnull %11, ptr noundef nonnull @.str.33, ptr noundef nonnull @.str.34, i32 noundef %46) #5
  %.not39.i = icmp eq ptr %47, null
  br i1 %.not39.i, label %48, label %54

48:                                               ; preds = %Py_DECREF.exit46.i
  %49 = load i32, ptr %11, align 8, !tbaa !9
  %.not.i43.i = icmp sgt i32 %49, -1
  br i1 %.not.i43.i, label %50, label %_lsprof_Profiler_disable_impl.exit

50:                                               ; preds = %48
  %51 = add nsw i32 %49, -1
  store i32 %51, ptr %11, align 8, !tbaa !9
  %52 = icmp eq i32 %51, 0
  br i1 %52, label %53, label %_lsprof_Profiler_disable_impl.exit

53:                                               ; preds = %50
  tail call void @_Py_Dealloc(ptr noundef nonnull %11) #5
  br label %_lsprof_Profiler_disable_impl.exit

54:                                               ; preds = %Py_DECREF.exit46.i
  %55 = load i32, ptr %47, align 8, !tbaa !9
  %.not.i41.i = icmp sgt i32 %55, -1
  br i1 %.not.i41.i, label %56, label %Py_DECREF.exit42.i

56:                                               ; preds = %54
  %57 = add nsw i32 %55, -1
  store i32 %57, ptr %47, align 8, !tbaa !9
  %58 = icmp eq i32 %57, 0
  br i1 %58, label %59, label %Py_DECREF.exit42.i

59:                                               ; preds = %56
  tail call void @_Py_Dealloc(ptr noundef nonnull %47) #5
  br label %Py_DECREF.exit42.i

Py_DECREF.exit42.i:                               ; preds = %59, %56, %54
  %60 = load i32, ptr %11, align 8, !tbaa !9
  %.not.i.i = icmp sgt i32 %60, -1
  br i1 %.not.i.i, label %61, label %Py_DECREF.exit.i

61:                                               ; preds = %Py_DECREF.exit42.i
  %62 = add nsw i32 %60, -1
  store i32 %62, ptr %11, align 8, !tbaa !9
  %63 = icmp eq i32 %62, 0
  br i1 %63, label %64, label %Py_DECREF.exit.i

64:                                               ; preds = %61
  tail call void @_Py_Dealloc(ptr noundef nonnull %11) #5
  br label %Py_DECREF.exit.i

Py_DECREF.exit.i:                                 ; preds = %64, %61, %Py_DECREF.exit42.i
  %65 = load i32, ptr %3, align 8, !tbaa !26
  %66 = and i32 %65, -2
  store i32 %66, ptr %3, align 8, !tbaa !26
  %67 = getelementptr inbounds nuw i8, ptr %0, i64 24
  %68 = load ptr, ptr %67, align 8, !tbaa !31
  %.not13.i.i = icmp eq ptr %68, null
  br i1 %.not13.i.i, label %Py_DECREF.exit52.i, label %.lr.ph.i.i

.lr.ph.i.i:                                       ; preds = %Py_DECREF.exit.i, %76
  %69 = phi ptr [ %77, %76 ], [ %68, %Py_DECREF.exit.i ]
  %70 = getelementptr inbounds nuw i8, ptr %69, i64 24
  %71 = load ptr, ptr %70, align 8, !tbaa !32
  %.not12.i.i = icmp eq ptr %71, null
  br i1 %.not12.i.i, label %73, label %72

72:                                               ; preds = %.lr.ph.i.i
  tail call fastcc void @Stop(ptr noundef nonnull %0, ptr noundef %69, ptr noundef %71)
  br label %76

73:                                               ; preds = %.lr.ph.i.i
  %74 = getelementptr inbounds nuw i8, ptr %69, i64 16
  %75 = load ptr, ptr %74, align 8, !tbaa !35
  store ptr %75, ptr %67, align 8, !tbaa !31
  br label %76

76:                                               ; preds = %73, %72
  tail call void @PyMem_Free(ptr noundef nonnull %69) #5
  %77 = load ptr, ptr %67, align 8, !tbaa !31
  %.not.i59.i = icmp eq ptr %77, null
  br i1 %.not.i59.i, label %Py_DECREF.exit52.loopexit.i, label %.lr.ph.i.i, !llvm.loop !36

Py_DECREF.exit52.loopexit.i:                      ; preds = %76
  %.pre.i = load i32, ptr %3, align 8, !tbaa !26
  br label %Py_DECREF.exit52.i

Py_DECREF.exit52.i:                               ; preds = %Py_DECREF.exit52.loopexit.i, %Py_DECREF.exit.i, %8
  %78 = phi i32 [ %.pre.i, %Py_DECREF.exit52.loopexit.i ], [ %66, %Py_DECREF.exit.i ], [ %4, %8 ]
  %79 = and i32 %78, 256
  %.not.i60.i = icmp eq i32 %79, 0
  br i1 %.not.i60.i, label %_lsprof_Profiler_disable_impl.exit, label %pending_exception.exit.i

pending_exception.exit.i:                         ; preds = %Py_DECREF.exit52.i
  %80 = add nsw i32 %78, -256
  store i32 %80, ptr %3, align 8, !tbaa !26
  %81 = load ptr, ptr @PyExc_MemoryError, align 8, !tbaa !48
  tail call void @PyErr_SetString(ptr noundef %81, ptr noundef nonnull @.str.16) #5
  br label %_lsprof_Profiler_disable_impl.exit

_lsprof_Profiler_disable_impl.exit:               ; preds = %6, %10, %19, %21, %24, %34, %36, %39, %48, %50, %53, %Py_DECREF.exit52.i, %pending_exception.exit.i
  %.028.i = phi ptr [ null, %6 ], [ null, %pending_exception.exit.i ], [ @_Py_NoneStruct, %Py_DECREF.exit52.i ], [ null, %10 ], [ null, %19 ], [ null, %21 ], [ null, %24 ], [ null, %34 ], [ null, %36 ], [ null, %39 ], [ null, %48 ], [ null, %50 ], [ null, %53 ]
  ret ptr %.028.i
}